; ModuleID = 'source-C-CXX/32/2477.c'
source_filename = "source-C-CXX/32/2477.c"
target datalayout = "e-m:e-p270:32:32-p271:32:32-p272:64:64-i64:64-f80:128-n8:16:32:64-S128"
target triple = "x86_64-pc-linux-gnu"

@.str = private unnamed_addr constant [3 x i8] c"%d\00", align 1

; Function Attrs: nounwind sspstrong uwtable
define dso_local i32 @main() local_unnamed_addr #0 {
  %1 = alloca i32, align 4
  %2 = alloca [256 x i8], align 16
  %3 = alloca [5 x i8], align 1
  %4 = bitcast i32* %1 to i8*
  call void @llvm.lifetime.start.p0i8(i64 4, i8* nonnull %4) #4
  %5 = getelementptr inbounds [256 x i8], [256 x i8]* %2, i64 0, i64 0
  call void @llvm.lifetime.start.p0i8(i64 256, i8* nonnull %5) #4
  %6 = getelementptr inbounds [5 x i8], [5 x i8]* %3, i64 0, i64 0
  call void @llvm.lifetime.start.p0i8(i64 5, i8* nonnull %6) #4
  %7 = call i32 (i8*, ...) @__isoc99_scanf(i8* getelementptr inbounds ([3 x i8], [3 x i8]* @.str, i64 0, i64 0), i32* nonnull %1)
  %8 = call i32 (i8*, ...) bitcast (i32 (...)* @gets to i32 (i8*, ...)*)(i8* nonnull %6) #4
  %9 = load i32, i32* %1, align 4, !tbaa !5
  %10 = icmp sgt i32 %9, 0
  br i1 %10, label %11, label %36

11:                                               ; preds = %0, %31
  %12 = phi i32 [ %33, %31 ], [ 0, %0 ]
  %13 = call i32 (i8*, ...) bitcast (i32 (...)* @gets to i32 (i8*, ...)*)(i8* nonnull %5) #4
  %14 = load i8, i8* %5, align 16, !tbaa !9
  %15 = icmp eq i8 %14, 0
  br i1 %15, label %31, label %16

16:                                               ; preds = %11, %26
  %17 = phi i64 [ %27, %26 ], [ 0, %11 ]
  %18 = phi i8 [ %29, %26 ], [ %14, %11 ]
  %19 = phi i8* [ %28, %26 ], [ %5, %11 ]
  %20 = sext i8 %18 to i32
  switch i32 %20, label %26 [
    i32 65, label %24
    i32 84, label %21
    i32 67, label %22
    i32 71, label %23
  ]

21:                                               ; preds = %16
  br label %24

22:                                               ; preds = %16
  br label %24

23:                                               ; preds = %16
  br label %24

24:                                               ; preds = %16, %23, %22, %21
  %25 = phi i8 [ 65, %21 ], [ 71, %22 ], [ 67, %23 ], [ 84, %16 ]
  store i8 %25, i8* %19, align 1, !tbaa !9
  br label %26

26:                                               ; preds = %24, %16
  %27 = add nuw i64 %17, 1
  %28 = getelementptr inbounds [256 x i8], [256 x i8]* %2, i64 0, i64 %27
  %29 = load i8, i8* %28, align 1, !tbaa !9
  %30 = icmp eq i8 %29, 0
  br i1 %30, label %31, label %16, !llvm.loop !10

31:                                               ; preds = %26, %11
  %32 = call i32 @puts(i8* nonnull %5)
  %33 = add nuw nsw i32 %12, 1
  %34 = load i32, i32* %1, align 4, !tbaa !5
  %35 = icmp slt i32 %33, %34
  br i1 %35, label %11, label %36, !llvm.loop !12

36:                                               ; preds = %31, %0
  call void @llvm.lifetime.end.p0i8(i64 5, i8* nonnull %6) #4
  call void @llvm.lifetime.end.p0i8(i64 256, i8* nonnull %5) #4
  call void @llvm.lifetime.end.p0i8(i64 4, i8* nonnull %4) #4
  ret i32 0
}

; Function Attrs: argmemonly mustprogress nofree nosync nounwind willreturn
declare void @llvm.lifetime.start.p0i8(i64 immarg, i8* nocapture) #1

; Function Attrs: nofree nounwind
declare noundef i32 @__isoc99_scanf(i8* nocapture noundef readonly, ...) local_unnamed_addr #2

declare i32 @gets(...) local_unnamed_addr #3

; Function Attrs: nofree nounwind
declare noundef i32 @puts(i8* nocapture noundef readonly) local_unnamed_addr #2

; Function Attrs: argmemonly mustprogress nofree nosync nounwind willreturn
declare void @llvm.lifetime.end.p0i8(i64 immarg, i8* nocapture) #1


!llvm.module.flags = !{!0, !1, !2, !3}
!llvm.ident = !{!4}

!0 = !{i32 1, !"wchar_size", i32 4}
!1 = !{i32 7, !"PIC Level", i32 2}
!2 = !{i32 7, !"PIE Level", i32 2}
!3 = !{i32 7, !"uwtable", i32 1}
!4 = !{!"clang version 13.0.0"}
!5 = !{!6, !6, i64 0}
!6 = !{!"int", !7, i64 0}
!7 = !{!"omnipotent char", !8, i64 0}
!8 = !{!"Simple C/C++ TBAA"}
!9 = !{!7, !7, i64 0}
!10 = distinct !{!10, !11}
!11 = !{!"llvm.loop.mustprogress"}
!12 = distinct !{!12, !11}
